; Function Attrs: nounwind uwtable
define hidden noundef ptr @_Py_set_function_type_params(ptr noundef readnone captures(none) %0, ptr noundef returned %1, ptr noundef %2) local_unnamed_addr #0 {
  %4 = getelementptr inbounds nuw i8, ptr %1, i64 128
  %5 = load ptr, ptr %4, align 8, !tbaa !96
  %6 = load i32, ptr %2, align 8, !tbaa !99
  %7 = icmp slt i32 %6, 0
  br i1 %7, label %_Py_NewRef.exit, label %8

8:                                                ; preds = %3
  %9 = add nuw i32 %6, 1
  store i32 %9, ptr %2, align 8, !tbaa !99
  br label %_Py_NewRef.exit

_Py_NewRef.exit:                                  ; preds = %3, %8
  store ptr %2, ptr %4, align 8, !tbaa !96
  %.not.i = icmp eq ptr %5, null
  br i1 %.not.i, label %Py_XDECREF.exit, label %10

10:                                               ; preds = %_Py_NewRef.exit
  %11 = load i32, ptr %5, align 8, !tbaa !99
  %.not.i.i = icmp sgt i32 %11, -1
  br i1 %.not.i.i, label %12, label %Py_XDECREF.exit

12:                                               ; preds = %10
  %13 = add nsw i32 %11, -1
  store i32 %13, ptr %5, align 8, !tbaa !99
  %14 = icmp eq i32 %13, 0
  br i1 %14, label %15, label %Py_XDECREF.exit

15:                                               ; preds = %12
  tail call void @_Py_Dealloc(ptr noundef nonnull %5) #8
  br label %Py_XDECREF.exit

Py_XDECREF.exit:                                  ; preds = %_Py_NewRef.exit, %10, %12, %15
  %16 = load i32, ptr %1, align 8, !tbaa !99
  %17 = icmp slt i32 %16, 0
  br i1 %17, label %_Py_NewRef.exit7, label %18

18:                                               ; preds = %Py_XDECREF.exit
  %19 = add nuw i32 %16, 1
  store i32 %19, ptr %1, align 8, !tbaa !99
  br label %_Py_NewRef.exit7

_Py_NewRef.exit7:                                 ; preds = %Py_XDECREF.exit, %18
  ret ptr %1
}